; Function Attrs: mustprogress nounwind uwtable
define hidden void @_ZN37JvmtiSampledObjectAllocEventCollector5startEv(ptr noundef nonnull align 8 dereferenceable(48) %0) local_unnamed_addr #1 align 2 {
  %2 = load i8, ptr @_ZN11JvmtiExport33_should_post_sampled_object_allocE, align 1
  %3 = trunc i8 %2 to i1
  br i1 %3, label %4, label %_ZN37JvmtiSampledObjectAllocEventCollector30object_alloc_is_safe_to_sampleEv.exit.thread

4:                                                ; preds = %1
  %5 = tail call align 8 ptr @llvm.threadlocal.address.p0(ptr align 8 @_ZN6Thread12_thr_currentE)
  %6 = load ptr, ptr %5, align 8
  %7 = load ptr, ptr %6, align 8
  %8 = getelementptr inbounds i8, ptr %7, i64 56
  %9 = load ptr, ptr %8, align 8
  %10 = tail call noundef zeroext i1 %9(ptr noundef nonnull align 8 dereferenceable(888) %6) #19
  br i1 %10, label %11, label %_ZN37JvmtiSampledObjectAllocEventCollector30object_alloc_is_safe_to_sampleEv.exit.thread

11:                                               ; preds = %4
  %12 = load ptr, ptr %6, align 8
  %13 = getelementptr inbounds i8, ptr %12, i64 64
  %14 = load ptr, ptr %13, align 8
  %15 = tail call noundef zeroext i1 %14(ptr noundef nonnull align 8 dereferenceable(888) %6) #19
  br i1 %15, label %_ZN37JvmtiSampledObjectAllocEventCollector30object_alloc_is_safe_to_sampleEv.exit.thread, label %16

16:                                               ; preds = %11
  %17 = getelementptr inbounds i8, ptr %6, i64 1144
  %18 = load volatile i32, ptr %17, align 8
  %19 = icmp eq i32 %18, 2
  br i1 %19, label %20, label %_ZN37JvmtiSampledObjectAllocEventCollector30object_alloc_is_safe_to_sampleEv.exit

20:                                               ; preds = %16
  %21 = tail call noundef ptr @_ZNK10JavaThread9threadObjEv(ptr noundef nonnull align 8 dereferenceable(1800) %6) #19
  %22 = icmp eq ptr %21, null
  br i1 %22, label %_ZN37JvmtiSampledObjectAllocEventCollector30object_alloc_is_safe_to_sampleEv.exit.thread, label %_ZN37JvmtiSampledObjectAllocEventCollector30object_alloc_is_safe_to_sampleEv.exit

_ZN37JvmtiSampledObjectAllocEventCollector30object_alloc_is_safe_to_sampleEv.exit: ; preds = %20, %16
  %23 = getelementptr inbounds i8, ptr %0, i64 32
  store i8 1, ptr %23, align 8
  tail call void @_ZN19JvmtiEventCollector24setup_jvmti_thread_stateEv(ptr noundef nonnull align 8 dereferenceable(17) %0)
  %24 = getelementptr inbounds i8, ptr %0, i64 40
  store ptr @_ZN11JvmtiExport25post_sampled_object_allocEP10JavaThreadP7oopDesc, ptr %24, align 8
  br label %_ZN37JvmtiSampledObjectAllocEventCollector30object_alloc_is_safe_to_sampleEv.exit.thread

_ZN37JvmtiSampledObjectAllocEventCollector30object_alloc_is_safe_to_sampleEv.exit.thread: ; preds = %20, %4, %11, %_ZN37JvmtiSampledObjectAllocEventCollector30object_alloc_is_safe_to_sampleEv.exit, %1
  ret void
}